target datalayout = "e-m:e-p270:32:32-p271:32:32-p272:64:64-i64:64-i128:128-f80:128-n8:16:32:64-S128"
target triple = "x86_64-unknown-linux-gnu"

%"struct.(anonymous namespace)::ValuePair" = type { i32, i32 }
%"class.eastl::allocator" = type { i8 }
%"struct.eastl::DequeIterator" = type { ptr, ptr, ptr, ptr }
%"struct.eastl::DequeBase" = type <{ ptr, i64, %"struct.eastl::DequeIterator", %"struct.eastl::DequeIterator", %"class.eastl::allocator", [7 x i8] }>

; Function Attrs: mustprogress nounwind uwtable
define linkonce_odr dso_local void @_ZN5eastl9allocator10deallocateEPvm(ptr noundef nonnull align 1 dereferenceable(1) %this, ptr noundef %p, i64 noundef %0) #3 comdat align 2 {
entry:
  %this.addr = alloca ptr, align 8
  %p.addr = alloca ptr, align 8
  %.addr = alloca i64, align 8
  store ptr %this, ptr %this.addr, align 8
  store ptr %p, ptr %p.addr, align 8
  store i64 %0, ptr %.addr, align 8
  %1 = load ptr, ptr %p.addr, align 8
  %isnull = icmp eq ptr %1, null
  br i1 %isnull, label %delete.end, label %delete.notnull

delete.notnull:                                   ; preds = %entry
  call void @_ZdaPv(ptr noundef %1) #14
  br label %delete.end

delete.end:                                       ; preds = %delete.notnull, %entry
  ret void
}

; Function Attrs: mustprogress nounwind uwtable
define internal void @_ZN5eastl9DequeBaseIN12_GLOBAL__N_19ValuePairENS_9allocatorELj128EE14DoFreeSubarrayEPS2_(ptr noundef nonnull align 8 dereferenceable(81) %this, ptr noundef %p) #3 align 2 {
entry:
  %this.addr = alloca ptr, align 8
  %p.addr = alloca ptr, align 8
  store ptr %this, ptr %this.addr, align 8
  store ptr %p, ptr %p.addr, align 8
  %this1 = load ptr, ptr %this.addr, align 8
  %0 = load ptr, ptr %p.addr, align 8
  %tobool = icmp ne ptr %0, null
  br i1 %tobool, label %if.then, label %if.end

if.then:                                          ; preds = %entry
  %mAllocator = getelementptr inbounds %"struct.eastl::DequeBase", ptr %this1, i32 0, i32 4
  %1 = load ptr, ptr %p.addr, align 8
  call void @_ZN5eastl9allocator10deallocateEPvm(ptr noundef nonnull align 1 dereferenceable(1) %mAllocator, ptr noundef %1, i64 noundef 1024)
  br label %if.end

if.end:                                           ; preds = %if.then, %entry
  ret void
}

; Function Attrs: mustprogress nounwind uwtable
define internal void @_ZN5eastl9DequeBaseIN12_GLOBAL__N_19ValuePairENS_9allocatorELj128EE14DoFreePtrArrayEPPS2_m(ptr noundef nonnull align 8 dereferenceable(81) %this, ptr noundef %pp, i64 noundef %n) #3 align 2 {
entry:
  %this.addr = alloca ptr, align 8
  %pp.addr = alloca ptr, align 8
  %n.addr = alloca i64, align 8
  store ptr %this, ptr %this.addr, align 8
  store ptr %pp, ptr %pp.addr, align 8
  store i64 %n, ptr %n.addr, align 8
  %this1 = load ptr, ptr %this.addr, align 8
  %0 = load ptr, ptr %pp.addr, align 8
  %tobool = icmp ne ptr %0, null
  br i1 %tobool, label %if.then, label %if.end

if.then:                                          ; preds = %entry
  %mAllocator = getelementptr inbounds %"struct.eastl::DequeBase", ptr %this1, i32 0, i32 4
  %1 = load ptr, ptr %pp.addr, align 8
  %2 = load i64, ptr %n.addr, align 8
  %mul = mul i64 %2, 8
  call void @_ZN5eastl9allocator10deallocateEPvm(ptr noundef nonnull align 1 dereferenceable(1) %mAllocator, ptr noundef %1, i64 noundef %mul)
  br label %if.end

if.end:                                           ; preds = %if.then, %entry
  ret void
}

; Function Attrs: mustprogress uwtable
define internal void @_ZN5eastl9DequeBaseIN12_GLOBAL__N_19ValuePairENS_9allocatorELj128EE15DoFreeSubarraysEPPS2_S6_(ptr noundef nonnull align 8 dereferenceable(81) %this, ptr noundef %pBegin, ptr noundef %pEnd) #0 align 2 {
entry:
  %this.addr = alloca ptr, align 8
  %pBegin.addr = alloca ptr, align 8
  %pEnd.addr = alloca ptr, align 8
  store ptr %this, ptr %this.addr, align 8
  store ptr %pBegin, ptr %pBegin.addr, align 8
  store ptr %pEnd, ptr %pEnd.addr, align 8
  %this1 = load ptr, ptr %this.addr, align 8
  br label %while.cond

while.cond:                                       ; preds = %while.body, %entry
  %0 = load ptr, ptr %pBegin.addr, align 8
  %1 = load ptr, ptr %pEnd.addr, align 8
  %cmp = icmp ult ptr %0, %1
  br i1 %cmp, label %while.body, label %while.end

while.body:                                       ; preds = %while.cond
  %2 = load ptr, ptr %pBegin.addr, align 8
  %incdec.ptr = getelementptr inbounds ptr, ptr %2, i32 1
  store ptr %incdec.ptr, ptr %pBegin.addr, align 8
  %3 = load ptr, ptr %2, align 8
  call void @_ZN5eastl9DequeBaseIN12_GLOBAL__N_19ValuePairENS_9allocatorELj128EE14DoFreeSubarrayEPS2_(ptr noundef nonnull align 8 dereferenceable(81) %this1, ptr noundef %3)
  br label %while.cond, !llvm.loop !25

while.end:                                        ; preds = %while.cond
  ret void
}

; Function Attrs: noreturn nounwind uwtable
define linkonce_odr hidden void @__clang_call_terminate(ptr noundef %0) #5 comdat {
  %2 = call ptr @__cxa_begin_catch(ptr %0) #9
  call void @_ZSt9terminatev() #11
  unreachable
}

; Function Attrs: mustprogress nounwind uwtable
define internal void @_ZN5eastl9DequeBaseIN12_GLOBAL__N_19ValuePairENS_9allocatorELj128EED2Ev(ptr noundef nonnull align 8 dereferenceable(81) %this) unnamed_addr #3 align 2 personality ptr @__gxx_personality_v0 {
entry:
  %this.addr = alloca ptr, align 8
  store ptr %this, ptr %this.addr, align 8
  %this1 = load ptr, ptr %this.addr, align 8
  %mpPtrArray = getelementptr inbounds %"struct.eastl::DequeBase", ptr %this1, i32 0, i32 0
  %0 = load ptr, ptr %mpPtrArray, align 8
  %tobool = icmp ne ptr %0, null
  br i1 %tobool, label %if.then, label %if.end

if.then:                                          ; preds = %entry
  %mItBegin = getelementptr inbounds %"struct.eastl::DequeBase", ptr %this1, i32 0, i32 2
  %mpCurrentArrayPtr = getelementptr inbounds %"struct.eastl::DequeIterator", ptr %mItBegin, i32 0, i32 3
  %1 = load ptr, ptr %mpCurrentArrayPtr, align 8
  %mItEnd = getelementptr inbounds %"struct.eastl::DequeBase", ptr %this1, i32 0, i32 3
  %mpCurrentArrayPtr2 = getelementptr inbounds %"struct.eastl::DequeIterator", ptr %mItEnd, i32 0, i32 3
  %2 = load ptr, ptr %mpCurrentArrayPtr2, align 8
  %add.ptr = getelementptr inbounds ptr, ptr %2, i64 1
  invoke void @_ZN5eastl9DequeBaseIN12_GLOBAL__N_19ValuePairENS_9allocatorELj128EE15DoFreeSubarraysEPPS2_S6_(ptr noundef nonnull align 8 dereferenceable(81) %this1, ptr noundef %1, ptr noundef %add.ptr)
          to label %invoke.cont unwind label %terminate.lpad

invoke.cont:                                      ; preds = %if.then
  %mpPtrArray3 = getelementptr inbounds %"struct.eastl::DequeBase", ptr %this1, i32 0, i32 0
  %3 = load ptr, ptr %mpPtrArray3, align 8
  %mnPtrArraySize = getelementptr inbounds %"struct.eastl::DequeBase", ptr %this1, i32 0, i32 1
  %4 = load i64, ptr %mnPtrArraySize, align 8
  invoke void @_ZN5eastl9DequeBaseIN12_GLOBAL__N_19ValuePairENS_9allocatorELj128EE14DoFreePtrArrayEPPS2_m(ptr noundef nonnull align 8 dereferenceable(81) %this1, ptr noundef %3, i64 noundef %4)
          to label %invoke.cont4 unwind label %terminate.lpad

invoke.cont4:                                     ; preds = %invoke.cont
  %mpPtrArray5 = getelementptr inbounds %"struct.eastl::DequeBase", ptr %this1, i32 0, i32 0
  store ptr null, ptr %mpPtrArray5, align 8
  br label %if.end

if.end:                                           ; preds = %invoke.cont4, %entry
  ret void

terminate.lpad:                                   ; preds = %invoke.cont, %if.then
  %5 = landingpad { ptr, i32 }
          catch ptr null
  %6 = extractvalue { ptr, i32 } %5, 0
  call void @__clang_call_terminate(ptr %6) #11
  unreachable
}

; Function Attrs: mustprogress nounwind uwtable
define internal noundef nonnull align 8 dereferenceable(32) ptr @_ZN5eastl13DequeIteratorIN12_GLOBAL__N_19ValuePairEPS2_RS2_Lj128EEppEv(ptr noundef nonnull align 8 dereferenceable(32) %this) #3 align 2 {
entry:
  %this.addr = alloca ptr, align 8
  store ptr %this, ptr %this.addr, align 8
  %this1 = load ptr, ptr %this.addr, align 8
  %mpCurrent = getelementptr inbounds %"struct.eastl::DequeIterator", ptr %this1, i32 0, i32 0
  %0 = load ptr, ptr %mpCurrent, align 8
  %incdec.ptr = getelementptr inbounds %"struct.(anonymous namespace)::ValuePair", ptr %0, i32 1
  store ptr %incdec.ptr, ptr %mpCurrent, align 8
  %mpEnd = getelementptr inbounds %"struct.eastl::DequeIterator", ptr %this1, i32 0, i32 2
  %1 = load ptr, ptr %mpEnd, align 8
  %cmp = icmp eq ptr %incdec.ptr, %1
  %lnot = xor i1 %cmp, true
  %lnot2 = xor i1 %lnot, true
  br i1 %lnot2, label %if.then, label %if.end

if.then:                                          ; preds = %entry
  %mpCurrentArrayPtr = getelementptr inbounds %"struct.eastl::DequeIterator", ptr %this1, i32 0, i32 3
  %2 = load ptr, ptr %mpCurrentArrayPtr, align 8
  %incdec.ptr3 = getelementptr inbounds ptr, ptr %2, i32 1
  store ptr %incdec.ptr3, ptr %mpCurrentArrayPtr, align 8
  %3 = load ptr, ptr %incdec.ptr3, align 8
  %mpBegin = getelementptr inbounds %"struct.eastl::DequeIterator", ptr %this1, i32 0, i32 1
  store ptr %3, ptr %mpBegin, align 8
  %mpBegin4 = getelementptr inbounds %"struct.eastl::DequeIterator", ptr %this1, i32 0, i32 1
  %4 = load ptr, ptr %mpBegin4, align 8
  %add.ptr = getelementptr inbounds %"struct.(anonymous namespace)::ValuePair", ptr %4, i64 128
  %mpEnd5 = getelementptr inbounds %"struct.eastl::DequeIterator", ptr %this1, i32 0, i32 2
  store ptr %add.ptr, ptr %mpEnd5, align 8
  %mpBegin6 = getelementptr inbounds %"struct.eastl::DequeIterator", ptr %this1, i32 0, i32 1
  %5 = load ptr, ptr %mpBegin6, align 8
  %mpCurrent7 = getelementptr inbounds %"struct.eastl::DequeIterator", ptr %this1, i32 0, i32 0
  store ptr %5, ptr %mpCurrent7, align 8
  br label %if.end

if.end:                                           ; preds = %if.then, %entry
  ret ptr %this1
}

; Function Attrs: mustprogress nounwind uwtable
define internal noundef zeroext i1 @_ZN5eastlneIN12_GLOBAL__N_19ValuePairEPS2_RS2_Lj128EEEbRKNS_13DequeIteratorIT_T0_T1_XT2_EEESB_(ptr noundef nonnull align 8 dereferenceable(32) %a, ptr noundef nonnull align 8 dereferenceable(32) %b) #3 {
entry:
  %a.addr = alloca ptr, align 8
  %b.addr = alloca ptr, align 8
  store ptr %a, ptr %a.addr, align 8
  store ptr %b, ptr %b.addr, align 8
  %0 = load ptr, ptr %a.addr, align 8
  %mpCurrent = getelementptr inbounds %"struct.eastl::DequeIterator", ptr %0, i32 0, i32 0
  %1 = load ptr, ptr %mpCurrent, align 8
  %2 = load ptr, ptr %b.addr, align 8
  %mpCurrent1 = getelementptr inbounds %"struct.eastl::DequeIterator", ptr %2, i32 0, i32 0
  %3 = load ptr, ptr %mpCurrent1, align 8
  %cmp = icmp ne ptr %1, %3
  ret i1 %cmp
}

; Function Attrs: mustprogress nounwind uwtable
define internal void @_ZN5eastl13DequeIteratorIN12_GLOBAL__N_19ValuePairEPS2_RS2_Lj128EEC2ERKS5_(ptr noundef nonnull align 8 dereferenceable(32) %this, ptr noundef nonnull align 8 dereferenceable(32) %x) unnamed_addr #3 align 2 {
entry:
  %this.addr = alloca ptr, align 8
  %x.addr = alloca ptr, align 8
  store ptr %this, ptr %this.addr, align 8
  store ptr %x, ptr %x.addr, align 8
  %this1 = load ptr, ptr %this.addr, align 8
  %mpCurrent = getelementptr inbounds %"struct.eastl::DequeIterator", ptr %this1, i32 0, i32 0
  %0 = load ptr, ptr %x.addr, align 8
  %mpCurrent2 = getelementptr inbounds %"struct.eastl::DequeIterator", ptr %0, i32 0, i32 0
  %1 = load ptr, ptr %mpCurrent2, align 8
  store ptr %1, ptr %mpCurrent, align 8
  %mpBegin = getelementptr inbounds %"struct.eastl::DequeIterator", ptr %this1, i32 0, i32 1
  %2 = load ptr, ptr %x.addr, align 8
  %mpBegin3 = getelementptr inbounds %"struct.eastl::DequeIterator", ptr %2, i32 0, i32 1
  %3 = load ptr, ptr %mpBegin3, align 8
  store ptr %3, ptr %mpBegin, align 8
  %mpEnd = getelementptr inbounds %"struct.eastl::DequeIterator", ptr %this1, i32 0, i32 2
  %4 = load ptr, ptr %x.addr, align 8
  %mpEnd4 = getelementptr inbounds %"struct.eastl::DequeIterator", ptr %4, i32 0, i32 2
  %5 = load ptr, ptr %mpEnd4, align 8
  store ptr %5, ptr %mpEnd, align 8
  %mpCurrentArrayPtr = getelementptr inbounds %"struct.eastl::DequeIterator", ptr %this1, i32 0, i32 3
  %6 = load ptr, ptr %x.addr, align 8
  %mpCurrentArrayPtr5 = getelementptr inbounds %"struct.eastl::DequeIterator", ptr %6, i32 0, i32 3
  %7 = load ptr, ptr %mpCurrentArrayPtr5, align 8
  store ptr %7, ptr %mpCurrentArrayPtr, align 8
  ret void
}

; Function Attrs: mustprogress nounwind uwtable
define internal void @_ZN5eastl5dequeIN12_GLOBAL__N_19ValuePairENS_9allocatorELj128EED2Ev(ptr noundef nonnull align 8 dereferenceable(81) %this) unnamed_addr #3 align 2 personality ptr @__gxx_personality_v0 {
entry:
  %this.addr = alloca ptr, align 8
  %itCurrent = alloca %"struct.eastl::DequeIterator", align 8
  store ptr %this, ptr %this.addr, align 8
  %this1 = load ptr, ptr %this.addr, align 8
  %mItBegin = getelementptr inbounds %"struct.eastl::DequeBase", ptr %this1, i32 0, i32 2
  invoke void @_ZN5eastl13DequeIteratorIN12_GLOBAL__N_19ValuePairEPS2_RS2_Lj128EEC2ERKS5_(ptr noundef nonnull align 8 dereferenceable(32) %itCurrent, ptr noundef nonnull align 8 dereferenceable(32) %mItBegin)
          to label %invoke.cont unwind label %terminate.lpad

invoke.cont:                                      ; preds = %entry
  br label %for.cond

for.cond:                                         ; preds = %invoke.cont3, %invoke.cont
  %mItEnd = getelementptr inbounds %"struct.eastl::DequeBase", ptr %this1, i32 0, i32 3
  %call = invoke noundef zeroext i1 @_ZN5eastlneIN12_GLOBAL__N_19ValuePairEPS2_RS2_Lj128EEEbRKNS_13DequeIteratorIT_T0_T1_XT2_EEESB_(ptr noundef nonnull align 8 dereferenceable(32) %itCurrent, ptr noundef nonnull align 8 dereferenceable(32) %mItEnd)
          to label %invoke.cont2 unwind label %terminate.lpad

invoke.cont2:                                     ; preds = %for.cond
  br i1 %call, label %for.body, label %for.end

for.body:                                         ; preds = %invoke.cont2
  br label %for.inc

for.inc:                                          ; preds = %for.body
  %call4 = invoke noundef nonnull align 8 dereferenceable(32) ptr @_ZN5eastl13DequeIteratorIN12_GLOBAL__N_19ValuePairEPS2_RS2_Lj128EEppEv(ptr noundef nonnull align 8 dereferenceable(32) %itCurrent)
          to label %invoke.cont3 unwind label %terminate.lpad

invoke.cont3:                                     ; preds = %for.inc
  br label %for.cond, !llvm.loop !20

for.end:                                          ; preds = %invoke.cont2
  call void @_ZN5eastl9DequeBaseIN12_GLOBAL__N_19ValuePairENS_9allocatorELj128EED2Ev(ptr noundef nonnull align 8 dereferenceable(81) %this1) #9
  ret void

terminate.lpad:                                   ; preds = %for.inc, %for.cond, %entry
  %0 = landingpad { ptr, i32 }
          catch ptr null
  %1 = extractvalue { ptr, i32 } %0, 0
  call void @__clang_call_terminate(ptr %1) #11
  unreachable
}