; Function Attrs: mustprogress nounwind uwtable
define internal fastcc void @_ZN5eastl5dequeIN12_GLOBAL__N_19ValuePairENS_9allocatorELj128EED2Ev(ptr noundef nonnull align 8 captures(none) dereferenceable(81) %this) unnamed_addr #4 align 2 personality ptr @__gxx_personality_v0 {
entry:
  %0 = load ptr, ptr %this, align 8
  %tobool.not.i = icmp eq ptr %0, null
  br i1 %tobool.not.i, label %_ZN5eastl9DequeBaseIN12_GLOBAL__N_19ValuePairENS_9allocatorELj128EED2Ev.exit, label %if.then.i5

if.then.i5:                                       ; preds = %entry
  %mpCurrentArrayPtr5.i = getelementptr inbounds nuw i8, ptr %this, i64 40
  %1 = load ptr, ptr %mpCurrentArrayPtr5.i, align 8
  %mpCurrentArrayPtr2.i = getelementptr inbounds nuw i8, ptr %this, i64 72
  %2 = load ptr, ptr %mpCurrentArrayPtr2.i, align 8
  %add.ptr.i7 = getelementptr inbounds nuw i8, ptr %2, i64 8
  %cmp1.i.i = icmp ult ptr %1, %add.ptr.i7
  br i1 %cmp1.i.i, label %while.body.i.i, label %_ZN5eastl9allocator10deallocateEPvm.exit.i.i

while.body.i.i:                                   ; preds = %if.then.i5, %_ZN5eastl9DequeBaseIN12_GLOBAL__N_19ValuePairENS_9allocatorELj128EE14DoFreeSubarrayEPS2_.exit.i.i
  %pBegin.addr.02.i.i = phi ptr [ %incdec.ptr.i.i, %_ZN5eastl9DequeBaseIN12_GLOBAL__N_19ValuePairENS_9allocatorELj128EE14DoFreeSubarrayEPS2_.exit.i.i ], [ %1, %if.then.i5 ]
  %incdec.ptr.i.i = getelementptr inbounds nuw i8, ptr %pBegin.addr.02.i.i, i64 8
  %3 = load ptr, ptr %pBegin.addr.02.i.i, align 8
  %tobool.not.i.i.i = icmp eq ptr %3, null
  br i1 %tobool.not.i.i.i, label %_ZN5eastl9DequeBaseIN12_GLOBAL__N_19ValuePairENS_9allocatorELj128EE14DoFreeSubarrayEPS2_.exit.i.i, label %_ZN5eastl9allocator10deallocateEPvm.exit.i.i.i

_ZN5eastl9allocator10deallocateEPvm.exit.i.i.i:   ; preds = %while.body.i.i
  tail call void @_ZdaPv(ptr noundef nonnull %3) #20
  br label %_ZN5eastl9DequeBaseIN12_GLOBAL__N_19ValuePairENS_9allocatorELj128EE14DoFreeSubarrayEPS2_.exit.i.i

_ZN5eastl9DequeBaseIN12_GLOBAL__N_19ValuePairENS_9allocatorELj128EE14DoFreeSubarrayEPS2_.exit.i.i: ; preds = %_ZN5eastl9allocator10deallocateEPvm.exit.i.i.i, %while.body.i.i
  %cmp.i.i = icmp ult ptr %pBegin.addr.02.i.i, %2
  br i1 %cmp.i.i, label %while.body.i.i, label %invoke.cont.i, !llvm.loop !322

invoke.cont.i:                                    ; preds = %_ZN5eastl9DequeBaseIN12_GLOBAL__N_19ValuePairENS_9allocatorELj128EE14DoFreeSubarrayEPS2_.exit.i.i
  %.pre.i = load ptr, ptr %this, align 8
  %tobool.not.i.i = icmp eq ptr %.pre.i, null
  br i1 %tobool.not.i.i, label %_ZN5eastl9DequeBaseIN12_GLOBAL__N_19ValuePairENS_9allocatorELj128EE14DoFreePtrArrayEPPS2_m.exit.i, label %_ZN5eastl9allocator10deallocateEPvm.exit.i.i

_ZN5eastl9allocator10deallocateEPvm.exit.i.i:     ; preds = %invoke.cont.i, %if.then.i5
  %4 = phi ptr [ %.pre.i, %invoke.cont.i ], [ %0, %if.then.i5 ]
  tail call void @_ZdaPv(ptr noundef nonnull %4) #20
  br label %_ZN5eastl9DequeBaseIN12_GLOBAL__N_19ValuePairENS_9allocatorELj128EE14DoFreePtrArrayEPPS2_m.exit.i

_ZN5eastl9DequeBaseIN12_GLOBAL__N_19ValuePairENS_9allocatorELj128EE14DoFreePtrArrayEPPS2_m.exit.i: ; preds = %_ZN5eastl9allocator10deallocateEPvm.exit.i.i, %invoke.cont.i
  store ptr null, ptr %this, align 8
  br label %_ZN5eastl9DequeBaseIN12_GLOBAL__N_19ValuePairENS_9allocatorELj128EED2Ev.exit

_ZN5eastl9DequeBaseIN12_GLOBAL__N_19ValuePairENS_9allocatorELj128EED2Ev.exit: ; preds = %entry, %_ZN5eastl9DequeBaseIN12_GLOBAL__N_19ValuePairENS_9allocatorELj128EE14DoFreePtrArrayEPPS2_m.exit.i
  ret void
}